target datalayout = "e-m:e-p270:32:32-p271:32:32-p272:64:64-i64:64-i128:128-f80:128-n8:16:32:64-S128"
target triple = "x86_64-pc-linux-gnu"

%struct.traceobj_arg = type { i32, i32, i64, i64, ptr, ptr, ptr }

@rb_eRuntimeError = external global i64, align 8
@.str.11 = private unnamed_addr constant [31 x i8] c"hash modified during iteration\00", align 1

; Function Attrs: nounwind sspstrong uwtable
define internal void @allocation_info_tracer_compact(ptr noundef %0) #0 {
  %2 = alloca ptr, align 8
  %3 = alloca ptr, align 8
  store ptr %0, ptr %2, align 8, !tbaa !32
  call void @llvm.lifetime.start.p0(i64 8, ptr %3) #17
  %4 = load ptr, ptr %2, align 8, !tbaa !32
  store ptr %4, ptr %3, align 8, !tbaa !10
  %5 = load ptr, ptr %3, align 8, !tbaa !10
  %6 = getelementptr inbounds nuw %struct.traceobj_arg, ptr %5, i32 0, i32 4
  %7 = load ptr, ptr %6, align 8, !tbaa !13
  %8 = icmp ne ptr %7, null
  br i1 %8, label %9, label %21

9:                                                ; preds = %1
  %10 = load ptr, ptr %3, align 8, !tbaa !10
  %11 = getelementptr inbounds nuw %struct.traceobj_arg, ptr %10, i32 0, i32 4
  %12 = load ptr, ptr %11, align 8, !tbaa !13
  %13 = load ptr, ptr %3, align 8, !tbaa !10
  %14 = getelementptr inbounds nuw %struct.traceobj_arg, ptr %13, i32 0, i32 4
  %15 = load ptr, ptr %14, align 8, !tbaa !13
  %16 = ptrtoint ptr %15 to i64
  %17 = call i32 @rb_st_foreach(ptr noundef %12, ptr noundef @allocation_info_tracer_compact_update_object_table_i, i64 noundef %16)
  %18 = icmp ne i32 %17, 0
  br i1 %18, label %19, label %21

19:                                               ; preds = %9
  %20 = load i64, ptr @rb_eRuntimeError, align 8, !tbaa !6
  call void (i64, ptr, ...) @rb_raise(i64 noundef %20, ptr noundef @.str.11) #21
  unreachable

21:                                               ; preds = %9, %1
  call void @llvm.lifetime.end.p0(i64 8, ptr %3) #17
  ret void
}