; Function Attrs: nounwind sspstrong uwtable
define internal void @allocation_info_tracer_compact(ptr noundef readonly captures(none) %0) #0 {
  %2 = getelementptr inbounds nuw i8, ptr %0, i64 24
  %3 = load ptr, ptr %2, align 8, !tbaa !11
  %.not = icmp eq ptr %3, null
  br i1 %.not, label %9, label %4

4:                                                ; preds = %1
  %5 = ptrtoint ptr %3 to i64
  %6 = tail call i32 @rb_st_foreach(ptr noundef nonnull %3, ptr noundef nonnull @allocation_info_tracer_compact_update_object_table_i, i64 noundef %5) #10
  %.not4 = icmp eq i32 %6, 0
  br i1 %.not4, label %9, label %7

7:                                                ; preds = %4
  %8 = load i64, ptr @rb_eRuntimeError, align 8, !tbaa !16
  tail call void (i64, ptr, ...) @rb_raise(i64 noundef %8, ptr noundef nonnull @.str.11) #13
  unreachable

9:                                                ; preds = %4, %1
  ret void
}